target datalayout = "e-m:e-p270:32:32-p271:32:32-p272:64:64-i64:64-i128:128-f80:128-n8:16:32:64-S128"
target triple = "x86_64-unknown-linux-gnu"

%struct.QTailQLink = type { ptr, ptr }
%struct.VirtIOSCSIReq = type <{ %struct.VirtQueueElement, ptr, ptr, %struct.QEMUSGList, %struct.QEMUIOVector, %union.anon.6, i32, [4 x i8], ptr, i64, i32, %union.anon.7, %union.anon.8, [4 x i8] }>
%struct.VirtQueueElement = type { i32, i32, i32, i32, i32, ptr, ptr, ptr, ptr }
%struct.QEMUSGList = type { ptr, i32, i32, i64, ptr, ptr }
%struct.QEMUIOVector = type { ptr, i32, %union.anon.4 }
%union.anon.4 = type { %struct.anon }
%struct.anon = type { i32, %struct.iovec }
%struct.iovec = type { ptr, i64 }
%union.anon.6 = type { %struct.QTailQLink }
%union.anon.7 = type { %struct.virtio_scsi_event }
%struct.virtio_scsi_event = type { i32, [8 x i8], i32 }
%union.anon.8 = type { %struct.virtio_scsi_ctrl_tmf_req }
%struct.virtio_scsi_ctrl_tmf_req = type { i32, i32, [8 x i8], i64 }
%struct.SCSICommand = type { [16 x i8], i32, i64, i64, i32 }

; Function Attrs: nounwind sspstrong uwtable
define internal i32 @virtio_scsi_parse_cdb(ptr noundef %dev, ptr noundef %cmd, ptr noundef %buf, i64 noundef %buf_len, ptr noundef %hba_private) #0 {
entry:
  %dev.addr = alloca ptr, align 8
  %cmd.addr = alloca ptr, align 8
  %buf.addr = alloca ptr, align 8
  %buf_len.addr = alloca i64, align 8
  %hba_private.addr = alloca ptr, align 8
  %req = alloca ptr, align 8
  %_a9 = alloca i32, align 4
  %_b10 = alloca i32, align 4
  %tmp = alloca i32, align 4
  store ptr %dev, ptr %dev.addr, align 8
  store ptr %cmd, ptr %cmd.addr, align 8
  store ptr %buf, ptr %buf.addr, align 8
  store i64 %buf_len, ptr %buf_len.addr, align 8
  store ptr %hba_private, ptr %hba_private.addr, align 8
  %0 = load ptr, ptr %hba_private.addr, align 8
  store ptr %0, ptr %req, align 8
  %1 = load ptr, ptr %cmd.addr, align 8
  %len = getelementptr inbounds %struct.SCSICommand, ptr %1, i32 0, i32 1
  %2 = load i32, ptr %len, align 8
  %cmp = icmp eq i32 %2, 0
  br i1 %cmp, label %if.then, label %if.end

if.then:                                          ; preds = %entry
  store i32 32, ptr %_a9, align 4
  store i32 16, ptr %_b10, align 4
  %3 = load i32, ptr %_a9, align 4
  %4 = load i32, ptr %_b10, align 4
  %cmp1 = icmp slt i32 %3, %4
  br i1 %cmp1, label %cond.true, label %cond.false

cond.true:                                        ; preds = %if.then
  %5 = load i32, ptr %_a9, align 4
  br label %cond.end

cond.false:                                       ; preds = %if.then
  %6 = load i32, ptr %_b10, align 4
  br label %cond.end

cond.end:                                         ; preds = %cond.false, %cond.true
  %cond = phi i32 [ %5, %cond.true ], [ %6, %cond.false ]
  store i32 %cond, ptr %tmp, align 4
  %7 = load i32, ptr %tmp, align 4
  %8 = load ptr, ptr %cmd.addr, align 8
  %len2 = getelementptr inbounds %struct.SCSICommand, ptr %8, i32 0, i32 1
  store i32 %7, ptr %len2, align 8
  %9 = load ptr, ptr %cmd.addr, align 8
  %buf3 = getelementptr inbounds %struct.SCSICommand, ptr %9, i32 0, i32 0
  %arraydecay = getelementptr inbounds [16 x i8], ptr %buf3, i64 0, i64 0
  %10 = load ptr, ptr %buf.addr, align 8
  %11 = load ptr, ptr %cmd.addr, align 8
  %len4 = getelementptr inbounds %struct.SCSICommand, ptr %11, i32 0, i32 1
  %12 = load i32, ptr %len4, align 8
  %conv = sext i32 %12 to i64
  call void @llvm.memcpy.p0.p0.i64(ptr align 8 %arraydecay, ptr align 1 %10, i64 %conv, i1 false)
  br label %if.end

if.end:                                           ; preds = %cond.end, %entry
  %13 = load ptr, ptr %req, align 8
  %qsgl = getelementptr inbounds %struct.VirtIOSCSIReq, ptr %13, i32 0, i32 3
  %size = getelementptr inbounds %struct.QEMUSGList, ptr %qsgl, i32 0, i32 3
  %14 = load i64, ptr %size, align 8
  %15 = load ptr, ptr %cmd.addr, align 8
  %xfer = getelementptr inbounds %struct.SCSICommand, ptr %15, i32 0, i32 2
  store i64 %14, ptr %xfer, align 8
  %16 = load ptr, ptr %req, align 8
  %mode = getelementptr inbounds %struct.VirtIOSCSIReq, ptr %16, i32 0, i32 10
  %17 = load i32, ptr %mode, align 8
  %18 = load ptr, ptr %cmd.addr, align 8
  %mode5 = getelementptr inbounds %struct.SCSICommand, ptr %18, i32 0, i32 4
  store i32 %17, ptr %mode5, align 8
  ret i32 0
}