; Function Attrs: mustprogress nofree norecurse nosync nounwind sspstrong willreturn memory(argmem: readwrite) uwtable
define internal noundef i32 @virtio_scsi_parse_cdb(ptr readnone captures(none) %dev, ptr noundef captures(none) initializes((24, 32), (40, 44)) %cmd, ptr noundef readonly captures(none) %buf, i64 %buf_len, ptr noundef readonly captures(none) %hba_private) #8 {
entry:
  %len = getelementptr inbounds nuw i8, ptr %cmd, i64 16
  %0 = load i32, ptr %len, align 8
  %cmp = icmp eq i32 %0, 0
  br i1 %cmp, label %if.then, label %if.end

if.then:                                          ; preds = %entry
  store i32 16, ptr %len, align 8
  tail call void @llvm.memcpy.p0.p0.i64(ptr noundef nonnull align 8 dereferenceable(16) %cmd, ptr noundef nonnull align 1 dereferenceable(16) %buf, i64 16, i1 false)
  br label %if.end

if.end:                                           ; preds = %if.then, %entry
  %size = getelementptr inbounds nuw i8, ptr %hba_private, i64 88
  %1 = load i64, ptr %size, align 8
  %xfer = getelementptr inbounds nuw i8, ptr %cmd, i64 24
  store i64 %1, ptr %xfer, align 8
  %mode = getelementptr inbounds nuw i8, ptr %hba_private, i64 192
  %2 = load i32, ptr %mode, align 8
  %mode5 = getelementptr inbounds nuw i8, ptr %cmd, i64 40
  store i32 %2, ptr %mode5, align 8
  ret i32 0
}